target datalayout = "e-m:e-p270:32:32-p271:32:32-p272:64:64-i64:64-i128:128-f80:128-n8:16:32:64-S128"
target triple = "x86_64-pc-linux-gnu"

%struct.FLAC__OggDecoderAspect = type { i32, i64, %struct.ogg_stream_state, %struct.ogg_sync_state, i32, i32, i32, i32, i32, i32, i32, i32, i32, %struct.ogg_page, i32, %struct.ogg_packet, ptr, %struct.FLAC__OggDecoderAspect_TargetLink, i32, i32, i32, i32, i32, i32 }
%struct.ogg_stream_state = type { ptr, i64, i64, i64, ptr, ptr, i64, i64, i64, i64, [282 x i8], i32, i32, i32, i64, i64, i64, i64 }
%struct.ogg_sync_state = type { ptr, i32, i32, i32, i32, i32, i32 }
%struct.ogg_page = type { ptr, i64, ptr, i64 }
%struct.ogg_packet = type { ptr, i64, i64, i64, i64, i64 }
%struct.FLAC__OggDecoderAspect_TargetLink = type { i64, i64, i64, i64, i64, i32 }
%struct.FLAC__OggDecoderAspect_LinkDetails = type { i64, i64, i64, i64, i32, ptr, i32 }

; Function Attrs: nounwind sspstrong uwtable
define hidden void @FLAC__ogg_decoder_aspect_finish(ptr noundef %0) #0 {
  %2 = alloca ptr, align 8
  %3 = alloca i32, align 4
  store ptr %0, ptr %2, align 8, !tbaa !3
  call void @llvm.lifetime.start.p0(i64 4, ptr %3) #9
  %4 = load ptr, ptr %2, align 8, !tbaa !3
  %5 = getelementptr inbounds nuw %struct.FLAC__OggDecoderAspect, ptr %4, i32 0, i32 3
  %6 = call i32 @ogg_sync_clear(ptr noundef %5)
  %7 = load ptr, ptr %2, align 8, !tbaa !3
  %8 = getelementptr inbounds nuw %struct.FLAC__OggDecoderAspect, ptr %7, i32 0, i32 2
  %9 = call i32 @ogg_stream_clear(ptr noundef %8)
  %10 = load ptr, ptr %2, align 8, !tbaa !3
  %11 = getelementptr inbounds nuw %struct.FLAC__OggDecoderAspect, ptr %10, i32 0, i32 16
  %12 = load ptr, ptr %11, align 8, !tbaa !34
  %13 = icmp ne ptr null, %12
  br i1 %13, label %14, label %37

14:                                               ; preds = %1
  store i32 0, ptr %3, align 4, !tbaa !37
  br label %15

15:                                               ; preds = %30, %14
  %16 = load i32, ptr %3, align 4, !tbaa !37
  %17 = load ptr, ptr %2, align 8, !tbaa !3
  %18 = getelementptr inbounds nuw %struct.FLAC__OggDecoderAspect, ptr %17, i32 0, i32 20
  %19 = load i32, ptr %18, align 8, !tbaa !33
  %20 = icmp ult i32 %16, %19
  br i1 %20, label %21, label %33

21:                                               ; preds = %15
  %22 = load ptr, ptr %2, align 8, !tbaa !3
  %23 = getelementptr inbounds nuw %struct.FLAC__OggDecoderAspect, ptr %22, i32 0, i32 16
  %24 = load ptr, ptr %23, align 8, !tbaa !34
  %25 = load i32, ptr %3, align 4, !tbaa !37
  %26 = zext i32 %25 to i64
  %27 = getelementptr inbounds nuw %struct.FLAC__OggDecoderAspect_LinkDetails, ptr %24, i64 %26
  %28 = getelementptr inbounds nuw %struct.FLAC__OggDecoderAspect_LinkDetails, ptr %27, i32 0, i32 5
  %29 = load ptr, ptr %28, align 8, !tbaa !38
  call void @free(ptr noundef %29) #9
  br label %30

30:                                               ; preds = %21
  %31 = load i32, ptr %3, align 4, !tbaa !37
  %32 = add i32 %31, 1
  store i32 %32, ptr %3, align 4, !tbaa !37
  br label %15, !llvm.loop !40

33:                                               ; preds = %15
  %34 = load ptr, ptr %2, align 8, !tbaa !3
  %35 = getelementptr inbounds nuw %struct.FLAC__OggDecoderAspect, ptr %34, i32 0, i32 16
  %36 = load ptr, ptr %35, align 8, !tbaa !34
  call void @free(ptr noundef %36) #9
  br label %37

37:                                               ; preds = %33, %1
  %38 = load ptr, ptr %2, align 8, !tbaa !3
  %39 = getelementptr inbounds nuw %struct.FLAC__OggDecoderAspect, ptr %38, i32 0, i32 16
  store ptr null, ptr %39, align 8, !tbaa !34
  call void @llvm.lifetime.end.p0(i64 4, ptr %3) #9
  ret void
}