; Function Attrs: nounwind sspstrong uwtable
define hidden void @FLAC__ogg_decoder_aspect_finish(ptr noundef %0) local_unnamed_addr #2 {
  %2 = getelementptr inbounds nuw i8, ptr %0, i64 424
  %3 = tail call i32 @ogg_sync_clear(ptr noundef nonnull %2) #15
  %4 = getelementptr inbounds nuw i8, ptr %0, i64 16
  %5 = tail call i32 @ogg_stream_clear(ptr noundef nonnull %4) #15
  %6 = getelementptr inbounds nuw i8, ptr %0, i64 584
  %7 = load ptr, ptr %6, align 8, !tbaa !27
  %.not = icmp eq ptr %7, null
  br i1 %.not, label %17, label %.preheader

.preheader:                                       ; preds = %1
  %8 = getelementptr inbounds nuw i8, ptr %0, i64 648
  %9 = load i32, ptr %8, align 8, !tbaa !28
  %.not10 = icmp eq i32 %9, 0
  br i1 %.not10, label %._crit_edge, label %.lr.ph

.lr.ph:                                           ; preds = %.preheader, %.lr.ph
  %indvars.iv = phi i64 [ %indvars.iv.next, %.lr.ph ], [ 0, %.preheader ]
  %10 = load ptr, ptr %6, align 8, !tbaa !27
  %11 = getelementptr inbounds nuw %struct.FLAC__OggDecoderAspect_LinkDetails, ptr %10, i64 %indvars.iv, i32 5
  %12 = load ptr, ptr %11, align 8, !tbaa !29
  tail call void @free(ptr noundef %12) #15
  %indvars.iv.next = add nuw nsw i64 %indvars.iv, 1
  %13 = load i32, ptr %8, align 8, !tbaa !28
  %14 = zext i32 %13 to i64
  %15 = icmp samesign ult i64 %indvars.iv.next, %14
  br i1 %15, label %.lr.ph, label %._crit_edge.loopexit, !llvm.loop !31

._crit_edge.loopexit:                             ; preds = %.lr.ph
  %.pre = load ptr, ptr %6, align 8, !tbaa !27
  br label %._crit_edge

._crit_edge:                                      ; preds = %._crit_edge.loopexit, %.preheader
  %16 = phi ptr [ %.pre, %._crit_edge.loopexit ], [ %7, %.preheader ]
  tail call void @free(ptr noundef %16) #15
  br label %17

17:                                               ; preds = %._crit_edge, %1
  store ptr null, ptr %6, align 8, !tbaa !27
  ret void
}